; ModuleID = '19/938.c'
source_filename = "19/938.c"
target datalayout = "e-m:e-p270:32:32-p271:32:32-p272:64:64-i64:64-f80:128-n8:16:32:64-S128"
target triple = "x86_64-pc-linux-gnu"

@.str = private unnamed_addr constant [5 x i8] c"%s%s\00", align 1
@.str.1 = private unnamed_addr constant [3 x i8] c"%s\00", align 1
@.str.2 = private unnamed_addr constant [3 x i8] c"%c\00", align 1

; Function Attrs: noinline nounwind uwtable
define dso_local i32 @main() #0 {
  %1 = alloca i32, align 4
  %2 = alloca [1000 x i8], align 16
  %3 = alloca [100 x i8], align 16
  %4 = alloca [100 x i8], align 16
  %5 = alloca [1000 x i32], align 16
  %6 = alloca i32, align 4
  %7 = alloca i32, align 4
  %8 = alloca i32, align 4
  %9 = alloca i32, align 4
  %10 = alloca i32, align 4
  %11 = alloca i32, align 4
  %12 = alloca i32, align 4
  store i32 0, i32* %1, align 4
  %13 = bitcast [1000 x i8]* %2 to i8*
  call void @llvm.memset.p0i8.i64(i8* align 16 %13, i8 0, i64 1000, i1 false)
  %14 = bitcast [100 x i8]* %3 to i8*
  call void @llvm.memset.p0i8.i64(i8* align 16 %14, i8 0, i64 100, i1 false)
  %15 = bitcast [100 x i8]* %4 to i8*
  call void @llvm.memset.p0i8.i64(i8* align 16 %15, i8 0, i64 100, i1 false)
  %16 = getelementptr inbounds [1000 x i8], [1000 x i8]* %2, i64 0, i64 0
  %17 = call i32 (i8*, ...) bitcast (i32 (...)* @gets to i32 (i8*, ...)*)(i8* %16)
  %18 = bitcast [1000 x i32]* %5 to i8*
  call void @llvm.memset.p0i8.i64(i8* align 16 %18, i8 0, i64 4000, i1 false)
  %19 = getelementptr inbounds [100 x i8], [100 x i8]* %3, i64 0, i64 0
  %20 = getelementptr inbounds [100 x i8], [100 x i8]* %4, i64 0, i64 0
  %21 = call i32 (i8*, ...) @__isoc99_scanf(i8* getelementptr inbounds ([5 x i8], [5 x i8]* @.str, i64 0, i64 0), i8* %19, i8* %20)
  store i32 0, i32* %8, align 4
  store i32 0, i32* %10, align 4
  %22 = getelementptr inbounds [1000 x i8], [1000 x i8]* %2, i64 0, i64 0
  %23 = call i64 @strlen(i8* %22) #4
  %24 = trunc i64 %23 to i32
  store i32 %24, i32* %11, align 4
  %25 = getelementptr inbounds [100 x i8], [100 x i8]* %3, i64 0, i64 0
  %26 = call i64 @strlen(i8* %25) #4
  %27 = trunc i64 %26 to i32
  store i32 %27, i32* %12, align 4
  store i32 0, i32* %6, align 4
  br label %28

28:                                               ; preds = %100, %0
  %29 = load i32, i32* %6, align 4
  %30 = load i32, i32* %11, align 4
  %31 = icmp slt i32 %29, %30
  br i1 %31, label %32, label %103

32:                                               ; preds = %28
  %33 = getelementptr inbounds [100 x i8], [100 x i8]* %3, i64 0, i64 0
  %34 = load i8, i8* %33, align 16
  %35 = sext i8 %34 to i32
  %36 = load i32, i32* %6, align 4
  %37 = sext i32 %36 to i64
  %38 = getelementptr inbounds [1000 x i8], [1000 x i8]* %2, i64 0, i64 %37
  %39 = load i8, i8* %38, align 1
  %40 = sext i8 %39 to i32
  %41 = icmp eq i32 %35, %40
  br i1 %41, label %42, label %50

42:                                               ; preds = %32
  %43 = load i32, i32* %6, align 4
  %44 = sub nsw i32 %43, 1
  %45 = sext i32 %44 to i64
  %46 = getelementptr inbounds [1000 x i8], [1000 x i8]* %2, i64 0, i64 %45
  %47 = load i8, i8* %46, align 1
  %48 = sext i8 %47 to i32
  %49 = icmp eq i32 %48, 32
  br i1 %49, label %63, label %50

50:                                               ; preds = %42, %32
  %51 = getelementptr inbounds [100 x i8], [100 x i8]* %3, i64 0, i64 0
  %52 = load i8, i8* %51, align 16
  %53 = sext i8 %52 to i32
  %54 = load i32, i32* %6, align 4
  %55 = sext i32 %54 to i64
  %56 = getelementptr inbounds [1000 x i8], [1000 x i8]* %2, i64 0, i64 %55
  %57 = load i8, i8* %56, align 1
  %58 = sext i8 %57 to i32
  %59 = icmp eq i32 %53, %58
  br i1 %59, label %60, label %99

60:                                               ; preds = %50
  %61 = load i32, i32* %6, align 4
  %62 = icmp eq i32 %61, 0
  br i1 %62, label %63, label %99

63:                                               ; preds = %60, %42
  %64 = load i32, i32* %6, align 4
  %65 = load i32, i32* %10, align 4
  %66 = sext i32 %65 to i64
  %67 = getelementptr inbounds [1000 x i32], [1000 x i32]* %5, i64 0, i64 %66
  store i32 %64, i32* %67, align 4
  store i32 1, i32* %7, align 4
  br label %68

68:                                               ; preds = %89, %63
  %69 = load i32, i32* %7, align 4
  %70 = load i32, i32* %12, align 4
  %71 = icmp slt i32 %69, %70
  br i1 %71, label %72, label %92

72:                                               ; preds = %68
  %73 = load i32, i32* %7, align 4
  %74 = sext i32 %73 to i64
  %75 = getelementptr inbounds [100 x i8], [100 x i8]* %3, i64 0, i64 %74
  %76 = load i8, i8* %75, align 1
  %77 = sext i8 %76 to i32
  %78 = load i32, i32* %6, align 4
  %79 = load i32, i32* %7, align 4
  %80 = add nsw i32 %78, %79
  %81 = sext i32 %80 to i64
  %82 = getelementptr inbounds [1000 x i8], [1000 x i8]* %2, i64 0, i64 %81
  %83 = load i8, i8* %82, align 1
  %84 = sext i8 %83 to i32
  %85 = icmp eq i32 %77, %84
  br i1 %85, label %86, label %87

86:                                               ; preds = %72
  store i32 1, i32* %8, align 4
  br label %88

87:                                               ; preds = %72
  store i32 0, i32* %8, align 4
  br label %88

88:                                               ; preds = %87, %86
  br label %89

89:                                               ; preds = %88
  %90 = load i32, i32* %7, align 4
  %91 = add nsw i32 %90, 1
  store i32 %91, i32* %7, align 4
  br label %68

92:                                               ; preds = %68
  %93 = load i32, i32* %8, align 4
  %94 = icmp ne i32 %93, 0
  br i1 %94, label %95, label %98

95:                                               ; preds = %92
  %96 = load i32, i32* %10, align 4
  %97 = add nsw i32 %96, 1
  store i32 %97, i32* %10, align 4
  br label %98

98:                                               ; preds = %95, %92
  br label %99

99:                                               ; preds = %98, %60, %50
  br label %100

100:                                              ; preds = %99
  %101 = load i32, i32* %6, align 4
  %102 = add nsw i32 %101, 1
  store i32 %102, i32* %6, align 4
  br label %28

103:                                              ; preds = %28
  %104 = load i32, i32* %8, align 4
  %105 = icmp eq i32 %104, 0
  br i1 %105, label %106, label %109

106:                                              ; preds = %103
  %107 = getelementptr inbounds [1000 x i8], [1000 x i8]* %2, i64 0, i64 0
  %108 = call i32 (i8*, ...) @printf(i8* getelementptr inbounds ([3 x i8], [3 x i8]* @.str.1, i64 0, i64 0), i8* %107)
  br label %184

109:                                              ; preds = %103
  store i32 0, i32* %6, align 4
  br label %110

110:                                              ; preds = %122, %109
  %111 = load i32, i32* %6, align 4
  %112 = getelementptr inbounds [1000 x i32], [1000 x i32]* %5, i64 0, i64 0
  %113 = load i32, i32* %112, align 16
  %114 = icmp slt i32 %111, %113
  br i1 %114, label %115, label %125

115:                                              ; preds = %110
  %116 = load i32, i32* %6, align 4
  %117 = sext i32 %116 to i64
  %118 = getelementptr inbounds [1000 x i8], [1000 x i8]* %2, i64 0, i64 %117
  %119 = load i8, i8* %118, align 1
  %120 = sext i8 %119 to i32
  %121 = call i32 (i8*, ...) @printf(i8* getelementptr inbounds ([3 x i8], [3 x i8]* @.str.2, i64 0, i64 0), i32 %120)
  br label %122

122:                                              ; preds = %115
  %123 = load i32, i32* %6, align 4
  %124 = add nsw i32 %123, 1
  store i32 %124, i32* %6, align 4
  br label %110

125:                                              ; preds = %110
  store i32 0, i32* %9, align 4
  br label %126

126:                                              ; preds = %158, %125
  %127 = load i32, i32* %9, align 4
  %128 = load i32, i32* %10, align 4
  %129 = icmp slt i32 %127, %128
  br i1 %129, label %130, label %161

130:                                              ; preds = %126
  %131 = getelementptr inbounds [100 x i8], [100 x i8]* %4, i64 0, i64 0
  %132 = call i32 (i8*, ...) @printf(i8* getelementptr inbounds ([3 x i8], [3 x i8]* @.str.1, i64 0, i64 0), i8* %131)
  %133 = load i32, i32* %12, align 4
  %134 = load i32, i32* %9, align 4
  %135 = sext i32 %134 to i64
  %136 = getelementptr inbounds [1000 x i32], [1000 x i32]* %5, i64 0, i64 %135
  %137 = load i32, i32* %136, align 4
  %138 = add nsw i32 %133, %137
  store i32 %138, i32* %7, align 4
  br label %139

139:                                              ; preds = %154, %130
  %140 = load i32, i32* %7, align 4
  %141 = load i32, i32* %9, align 4
  %142 = add nsw i32 %141, 1
  %143 = sext i32 %142 to i64
  %144 = getelementptr inbounds [1000 x i32], [1000 x i32]* %5, i64 0, i64 %143
  %145 = load i32, i32* %144, align 4
  %146 = icmp slt i32 %140, %145
  br i1 %146, label %147, label %157

147:                                              ; preds = %139
  %148 = load i32, i32* %7, align 4
  %149 = sext i32 %148 to i64
  %150 = getelementptr inbounds [1000 x i8], [1000 x i8]* %2, i64 0, i64 %149
  %151 = load i8, i8* %150, align 1
  %152 = sext i8 %151 to i32
  %153 = call i32 (i8*, ...) @printf(i8* getelementptr inbounds ([3 x i8], [3 x i8]* @.str.2, i64 0, i64 0), i32 %152)
  br label %154

154:                                              ; preds = %147
  %155 = load i32, i32* %7, align 4
  %156 = add nsw i32 %155, 1
  store i32 %156, i32* %7, align 4
  br label %139

157:                                              ; preds = %139
  br label %158

158:                                              ; preds = %157
  %159 = load i32, i32* %9, align 4
  %160 = add nsw i32 %159, 1
  store i32 %160, i32* %9, align 4
  br label %126

161:                                              ; preds = %126
  %162 = load i32, i32* %10, align 4
  %163 = sub nsw i32 %162, 1
  %164 = sext i32 %163 to i64
  %165 = getelementptr inbounds [1000 x i32], [1000 x i32]* %5, i64 0, i64 %164
  %166 = load i32, i32* %165, align 4
  %167 = load i32, i32* %12, align 4
  %168 = add nsw i32 %166, %167
  store i32 %168, i32* %7, align 4
  br label %169

169:                                              ; preds = %180, %161
  %170 = load i32, i32* %7, align 4
  %171 = load i32, i32* %11, align 4
  %172 = icmp slt i32 %170, %171
  br i1 %172, label %173, label %183

173:                                              ; preds = %169
  %174 = load i32, i32* %7, align 4
  %175 = sext i32 %174 to i64
  %176 = getelementptr inbounds [1000 x i8], [1000 x i8]* %2, i64 0, i64 %175
  %177 = load i8, i8* %176, align 1
  %178 = sext i8 %177 to i32
  %179 = call i32 (i8*, ...) @printf(i8* getelementptr inbounds ([3 x i8], [3 x i8]* @.str.2, i64 0, i64 0), i32 %178)
  br label %180

180:                                              ; preds = %173
  %181 = load i32, i32* %7, align 4
  %182 = add nsw i32 %181, 1
  store i32 %182, i32* %7, align 4
  br label %169

183:                                              ; preds = %169
  br label %184

184:                                              ; preds = %183, %106
  ret i32 0
}

; Function Attrs: argmemonly nounwind willreturn
declare void @llvm.memset.p0i8.i64(i8* nocapture writeonly, i8, i64, i1 immarg) #1

declare dso_local i32 @gets(...) #2

declare dso_local i32 @__isoc99_scanf(i8*, ...) #2

; Function Attrs: nounwind readonly
declare dso_local i64 @strlen(i8*) #3

declare dso_local i32 @printf(i8*, ...) #2


!llvm.module.flags = !{!0}
!llvm.ident = !{!1}

!0 = !{i32 1, !"wchar_size", i32 4}
!1 = !{!"clang version 10.0.0-4ubuntu1 "}
